; Function Attrs: mustprogress uwtable
define noundef i32 @_ZNK6icu_7517CharsetRecog_sbcs10match_sbcsEPNS_9InputTextEPKiPKh(ptr nocapture nonnull readnone align 8 %this, ptr noundef %det, ptr noundef %ngrams, ptr noundef %byteMap) unnamed_addr #6 align 2 personality ptr @__gxx_personality_v0 {
entry:
  %parser = alloca %"class.icu_75::NGramParser", align 8
  call void @_ZN6icu_7511NGramParserC1EPKiPKh(ptr noundef nonnull align 8 dereferenceable(48) %parser, ptr noundef %ngrams, ptr noundef %byteMap)
  %vtable.i = load ptr, ptr %parser, align 8
  %vfn.i = getelementptr inbounds i8, ptr %vtable.i, i64 24
  %0 = load ptr, ptr %vfn.i, align 8
  invoke void %0(ptr noundef nonnull align 8 dereferenceable(48) %parser, ptr noundef %det)
          to label %.noexc unwind label %lpad

.noexc:                                           ; preds = %entry
  %ngram.i.i = getelementptr inbounds i8, ptr %parser, i64 8
  %1 = load i32, ptr %ngram.i.i, align 8
  %shl.i.i = shl i32 %1, 8
  %add.i.i = and i32 %shl.i.i, 16776960
  %and.i.i = or disjoint i32 %add.i.i, 32
  store i32 %and.i.i, ptr %ngram.i.i, align 8
  %ngramCount.i.i.i = getelementptr inbounds i8, ptr %parser, i64 24
  %2 = load i32, ptr %ngramCount.i.i.i, align 8
  %add.i.i.i = add nsw i32 %2, 1
  store i32 %add.i.i.i, ptr %ngramCount.i.i.i, align 8
  %ngramList.i.i.i = getelementptr inbounds i8, ptr %parser, i64 16
  %3 = load ptr, ptr %ngramList.i.i.i, align 8
  %arrayidx.i.i.i.i = getelementptr inbounds i8, ptr %3, i64 128
  %4 = load i32, ptr %arrayidx.i.i.i.i, align 4
  %cmp.not.i.i.i.i = icmp sgt i32 %4, %and.i.i
  %spec.select.i.i.i.i = select i1 %cmp.not.i.i.i.i, i32 0, i32 32
  %add3.i.i.i.i = or disjoint i32 %spec.select.i.i.i.i, 16
  %idxprom4.i.i.i.i = zext nneg i32 %add3.i.i.i.i to i64
  %arrayidx5.i.i.i.i = getelementptr inbounds i32, ptr %3, i64 %idxprom4.i.i.i.i
  %5 = load i32, ptr %arrayidx5.i.i.i.i, align 4
  %cmp6.not.i.i.i.i = icmp sgt i32 %5, %and.i.i
  %index.1.i.i.i.i = select i1 %cmp6.not.i.i.i.i, i32 %spec.select.i.i.i.i, i32 %add3.i.i.i.i
  %add10.i.i.i.i = or disjoint i32 %index.1.i.i.i.i, 8
  %idxprom11.i.i.i.i = zext nneg i32 %add10.i.i.i.i to i64
  %arrayidx12.i.i.i.i = getelementptr inbounds i32, ptr %3, i64 %idxprom11.i.i.i.i
  %6 = load i32, ptr %arrayidx12.i.i.i.i, align 4
  %cmp13.not.i.i.i.i = icmp sgt i32 %6, %and.i.i
  %index.2.i.i.i.i = select i1 %cmp13.not.i.i.i.i, i32 %index.1.i.i.i.i, i32 %add10.i.i.i.i
  %add17.i.i.i.i = or disjoint i32 %index.2.i.i.i.i, 4
  %idxprom18.i.i.i.i = zext nneg i32 %add17.i.i.i.i to i64
  %arrayidx19.i.i.i.i = getelementptr inbounds i32, ptr %3, i64 %idxprom18.i.i.i.i
  %7 = load i32, ptr %arrayidx19.i.i.i.i, align 4
  %cmp20.not.i.i.i.i = icmp sgt i32 %7, %and.i.i
  %index.3.i.i.i.i = select i1 %cmp20.not.i.i.i.i, i32 %index.2.i.i.i.i, i32 %add17.i.i.i.i
  %add24.i.i.i.i = add nuw nsw i32 %index.3.i.i.i.i, 2
  %idxprom25.i.i.i.i = zext nneg i32 %add24.i.i.i.i to i64
  %arrayidx26.i.i.i.i = getelementptr inbounds i32, ptr %3, i64 %idxprom25.i.i.i.i
  %8 = load i32, ptr %arrayidx26.i.i.i.i, align 4
  %cmp27.not.i.i.i.i = icmp sgt i32 %8, %and.i.i
  %index.4.i.i.i.i = select i1 %cmp27.not.i.i.i.i, i32 %index.3.i.i.i.i, i32 %add24.i.i.i.i
  %add31.i.i.i.i = add nuw nsw i32 %index.4.i.i.i.i, 1
  %idxprom32.i.i.i.i = zext nneg i32 %add31.i.i.i.i to i64
  %arrayidx33.i.i.i.i = getelementptr inbounds i32, ptr %3, i64 %idxprom32.i.i.i.i
  %9 = load i32, ptr %arrayidx33.i.i.i.i, align 4
  %cmp34.not.i.i.i.i = icmp sgt i32 %9, %and.i.i
  %index.5.i.i.i.i = select i1 %cmp34.not.i.i.i.i, i32 %index.4.i.i.i.i, i32 %add31.i.i.i.i
  %idxprom38.i.i.i.i = zext nneg i32 %index.5.i.i.i.i to i64
  %arrayidx39.i.i.i.i = getelementptr inbounds i32, ptr %3, i64 %idxprom38.i.i.i.i
  %10 = load i32, ptr %arrayidx39.i.i.i.i, align 4
  %cmp40.i.i.i.i = icmp sgt i32 %10, %and.i.i
  %sub.i.i.i.i = sext i1 %cmp40.i.i.i.i to i32
  %index.6.i.i.i.i = add nsw i32 %index.5.i.i.i.i, %sub.i.i.i.i
  %cmp43.i.i.i.i = icmp slt i32 %index.6.i.i.i.i, 0
  br i1 %cmp43.i.i.i.i, label %invoke.cont, label %lor.lhs.false.i.i.i.i

lor.lhs.false.i.i.i.i:                            ; preds = %.noexc
  %idxprom44.i.i.i.i = zext nneg i32 %index.6.i.i.i.i to i64
  %arrayidx45.i.i.i.i = getelementptr inbounds i32, ptr %3, i64 %idxprom44.i.i.i.i
  %11 = load i32, ptr %arrayidx45.i.i.i.i, align 4
  %cmp46.not.i.i.i.i = icmp eq i32 %11, %and.i.i
  br i1 %cmp46.not.i.i.i.i, label %if.then.i.i.i, label %invoke.cont

if.then.i.i.i:                                    ; preds = %lor.lhs.false.i.i.i.i
  %hitCount.i.i.i = getelementptr inbounds i8, ptr %parser, i64 28
  %12 = load i32, ptr %hitCount.i.i.i, align 4
  %add2.i.i.i = add nsw i32 %12, 1
  store i32 %add2.i.i.i, ptr %hitCount.i.i.i, align 4
  br label %invoke.cont

invoke.cont:                                      ; preds = %if.then.i.i.i, %lor.lhs.false.i.i.i.i, %.noexc
  %hitCount.i = getelementptr inbounds i8, ptr %parser, i64 28
  %13 = load i32, ptr %hitCount.i, align 4
  %conv.i = sitofp i32 %13 to double
  %conv2.i = sitofp i32 %add.i.i.i to double
  %div.i = fdiv double %conv.i, %conv2.i
  %cmp.i = fcmp ogt double %div.i, 3.300000e-01
  %mul.i = fmul double %div.i, 3.000000e+02
  %conv3.i = fptosi double %mul.i to i32
  %retval.0.i = select i1 %cmp.i, i32 98, i32 %conv3.i
  call void @_ZN6icu_7511NGramParserD1Ev(ptr noundef nonnull align 8 dereferenceable(48) %parser) #10
  ret i32 %retval.0.i

lpad:                                             ; preds = %entry
  %14 = landingpad { ptr, i32 }
          cleanup
  call void @_ZN6icu_7511NGramParserD1Ev(ptr noundef nonnull align 8 dereferenceable(48) %parser) #10
  resume { ptr, i32 } %14
}